; Function Attrs: mustprogress uwtable
define hidden void @_ZN10polynomial7manager9primitiveEPKNS_10polynomialEjR7obj_refIS1_S0_E(ptr nocapture noundef nonnull readonly align 8 dereferenceable(8) %this, ptr noundef %p, i32 noundef %x, ptr nocapture noundef nonnull align 8 dereferenceable(16) %pp) local_unnamed_addr #4 align 2 personality ptr @__gxx_personality_v0 {
entry:
  %ref.tmp = alloca %class.obj_ref, align 8
  %0 = load ptr, ptr %this, align 8
  call void @_ZN10polynomial7manager3imp2ppEPKNS_10polynomialEj(ptr nonnull sret(%class.obj_ref) align 8 %ref.tmp, ptr noundef nonnull align 8 dereferenceable(824) %0, ptr noundef %p, i32 noundef %x)
  %1 = load ptr, ptr %pp, align 8
  %2 = load ptr, ptr %ref.tmp, align 8
  store ptr %2, ptr %pp, align 8
  store ptr %1, ptr %ref.tmp, align 8
  %tobool.not.i.i.i = icmp eq ptr %1, null
  br i1 %tobool.not.i.i.i, label %_ZN7obj_refIN10polynomial10polynomialENS0_7managerEED2Ev.exit, label %if.then.i.i.i.i

if.then.i.i.i.i:                                  ; preds = %entry
  %m_manager.i.i.i = getelementptr inbounds i8, ptr %ref.tmp, i64 8
  %3 = load ptr, ptr %m_manager.i.i.i, align 8
  %4 = load ptr, ptr %3, align 8
  %5 = load i32, ptr %1, align 8
  %dec.i.i.i.i.i.i = add i32 %5, -1
  store i32 %dec.i.i.i.i.i.i, ptr %1, align 8
  %cmp.i.i.i.i.i = icmp eq i32 %dec.i.i.i.i.i.i, 0
  br i1 %cmp.i.i.i.i.i, label %if.then.i.i.i.i.i, label %_ZN7obj_refIN10polynomial10polynomialENS0_7managerEED2Ev.exit

if.then.i.i.i.i.i:                                ; preds = %if.then.i.i.i.i
  invoke void @_ZN10polynomial7manager3imp3delEPNS_10polynomialE(ptr noundef nonnull align 8 dereferenceable(824) %4, ptr noundef nonnull %1)
          to label %_ZN7obj_refIN10polynomial10polynomialENS0_7managerEED2Ev.exit unwind label %terminate.lpad.i

terminate.lpad.i:                                 ; preds = %if.then.i.i.i.i.i
  %6 = landingpad { ptr, i32 }
          catch ptr null
  %7 = extractvalue { ptr, i32 } %6, 0
  call void @__clang_call_terminate(ptr %7) #27
  unreachable

_ZN7obj_refIN10polynomial10polynomialENS0_7managerEED2Ev.exit: ; preds = %if.then.i.i.i.i.i, %if.then.i.i.i.i, %entry
  ret void
}